target datalayout = "e-m:e-p270:32:32-p271:32:32-p272:64:64-i64:64-i128:128-f80:128-n8:16:32:64-S128"
target triple = "x86_64-pc-linux-gnu"

%struct.SDL_AudioStream = type { ptr, i32, ptr, ptr, ptr, ptr, %struct.SDL_AudioSpec, %struct.SDL_AudioSpec, ptr, ptr, float, float, ptr, %struct.SDL_AudioSpec, ptr, [8 x i32], i64, ptr, i64, i8, ptr, ptr, ptr, ptr, ptr }
%struct.SDL_AudioSpec = type { i32, i32, i32 }

@.str = private unnamed_addr constant [26 x i8] c"Parameter '%s' is invalid\00", align 1
@.str.1 = private unnamed_addr constant [7 x i8] c"stream\00", align 1

; Function Attrs: nounwind uwtable
define hidden i32 @SDL_GetAudioStreamQueued_REAL(ptr noundef %0) #0 {
  %2 = alloca i32, align 4
  %3 = alloca ptr, align 8
  %4 = alloca i64, align 8
  store ptr %0, ptr %3, align 8
  %5 = load ptr, ptr %3, align 8
  %6 = icmp ne ptr %5, null
  br i1 %6, label %9, label %7

7:                                                ; preds = %1
  %8 = call zeroext i1 (ptr, ...) @SDL_SetError_REAL(ptr noundef @.str, ptr noundef @.str.1)
  store i32 -1, ptr %2, align 4
  br label %28

9:                                                ; preds = %1
  %10 = load ptr, ptr %3, align 8
  %11 = getelementptr inbounds nuw %struct.SDL_AudioStream, ptr %10, i32 0, i32 0
  %12 = load ptr, ptr %11, align 8
  call void @SDL_LockMutex_REAL(ptr noundef %12)
  call void @llvm.lifetime.start.p0(i64 8, ptr %4) #7
  %13 = load ptr, ptr %3, align 8
  %14 = getelementptr inbounds nuw %struct.SDL_AudioStream, ptr %13, i32 0, i32 12
  %15 = load ptr, ptr %14, align 8
  %16 = call i64 @SDL_GetAudioQueueQueued(ptr noundef %15)
  store i64 %16, ptr %4, align 8
  %17 = load ptr, ptr %3, align 8
  %18 = getelementptr inbounds nuw %struct.SDL_AudioStream, ptr %17, i32 0, i32 0
  %19 = load ptr, ptr %18, align 8
  call void @SDL_UnlockMutex_REAL(ptr noundef %19)
  %20 = load i64, ptr %4, align 8
  %21 = icmp ult i64 %20, 2147483647
  br i1 %21, label %22, label %24

22:                                               ; preds = %9
  %23 = load i64, ptr %4, align 8
  br label %25

24:                                               ; preds = %9
  br label %25

25:                                               ; preds = %24, %22
  %26 = phi i64 [ %23, %22 ], [ 2147483647, %24 ]
  %27 = trunc i64 %26 to i32
  store i32 %27, ptr %2, align 4
  call void @llvm.lifetime.end.p0(i64 8, ptr %4) #7
  br label %28

28:                                               ; preds = %25, %7
  %29 = load i32, ptr %2, align 4
  ret i32 %29
}