; Function Attrs: nounwind uwtable
define hidden range(i32 -1, -2147483648) i32 @SDL_GetAudioStreamQueued_REAL(ptr noundef readonly captures(address_is_null) %0) local_unnamed_addr #2 {
  %.not = icmp eq ptr %0, null
  br i1 %.not, label %2, label %4

2:                                                ; preds = %1
  %3 = tail call zeroext i1 (ptr, ...) @SDL_SetError_REAL(ptr noundef nonnull @.str, ptr noundef nonnull @.str.1) #11
  br label %12

4:                                                ; preds = %1
  %5 = load ptr, ptr %0, align 8
  tail call void @SDL_LockMutex_REAL(ptr noundef %5) #11
  %6 = getelementptr inbounds nuw i8, ptr %0, i64 96
  %7 = load ptr, ptr %6, align 8
  %8 = tail call i64 @SDL_GetAudioQueueQueued(ptr noundef %7) #11
  %9 = load ptr, ptr %0, align 8
  tail call void @SDL_UnlockMutex_REAL(ptr noundef %9) #11
  %10 = tail call i64 @llvm.umin.i64(i64 %8, i64 2147483647)
  %11 = trunc nuw nsw i64 %10 to i32
  br label %12

12:                                               ; preds = %4, %2
  %.0 = phi i32 [ %11, %4 ], [ -1, %2 ]
  ret i32 %.0
}